target datalayout = "e-m:e-p270:32:32-p271:32:32-p272:64:64-i64:64-i128:128-f80:128-n8:16:32:64-S128"
target triple = "x86_64-pc-linux-gnu"

%struct.Bdc_Man_t_ = type { ptr, i32, i32, i32, i32, ptr, i32, i32, i32, ptr, ptr, i32, ptr, ptr, ptr, ptr, ptr, ptr, ptr, %struct.Bdc_Isf_t_, ptr, %struct.Bdc_Isf_t_, ptr, %struct.Bdc_Isf_t_, ptr, %struct.Bdc_Isf_t_, ptr, i32, i32, i32, i32, i32, i32, i32, i64, i64, i64, i64, i64 }
%struct.Bdc_Isf_t_ = type { i32, i32, ptr, ptr }

; Function Attrs: inlinehint nounwind uwtable
define internal i32 @Kit_TruthWordNum(i32 noundef %0) #3 {
  %2 = alloca i32, align 4
  store i32 %0, ptr %2, align 4, !tbaa !28
  %3 = load i32, ptr %2, align 4, !tbaa !28
  %4 = icmp sle i32 %3, 5
  br i1 %4, label %5, label %6

5:                                                ; preds = %1
  br label %10

6:                                                ; preds = %1
  %7 = load i32, ptr %2, align 4, !tbaa !28
  %8 = sub nsw i32 %7, 5
  %9 = shl i32 1, %8
  br label %10

10:                                               ; preds = %6, %5
  %11 = phi i32 [ 1, %5 ], [ %9, %6 ]
  ret i32 %11
}

; Function Attrs: inlinehint nounwind uwtable
define internal i32 @Kit_TruthIsDisjoint3(ptr noundef %0, ptr noundef %1, ptr noundef %2, i32 noundef %3) #3 {
  %5 = alloca i32, align 4
  %6 = alloca ptr, align 8
  %7 = alloca ptr, align 8
  %8 = alloca ptr, align 8
  %9 = alloca i32, align 4
  %10 = alloca i32, align 4
  %11 = alloca i32, align 4
  store ptr %0, ptr %6, align 8, !tbaa !34
  store ptr %1, ptr %7, align 8, !tbaa !34
  store ptr %2, ptr %8, align 8, !tbaa !34
  store i32 %3, ptr %9, align 4, !tbaa !28
  call void @llvm.lifetime.start.p0(i64 4, ptr %10) #7
  %12 = load i32, ptr %9, align 4, !tbaa !28
  %13 = call i32 @Kit_TruthWordNum(i32 noundef %12)
  %14 = sub nsw i32 %13, 1
  store i32 %14, ptr %10, align 4, !tbaa !28
  br label %15

15:                                               ; preds = %39, %4
  %16 = load i32, ptr %10, align 4, !tbaa !28
  %17 = icmp sge i32 %16, 0
  br i1 %17, label %18, label %42

18:                                               ; preds = %15
  %19 = load ptr, ptr %6, align 8, !tbaa !34
  %20 = load i32, ptr %10, align 4, !tbaa !28
  %21 = sext i32 %20 to i64
  %22 = getelementptr inbounds i32, ptr %19, i64 %21
  %23 = load i32, ptr %22, align 4, !tbaa !28
  %24 = load ptr, ptr %7, align 8, !tbaa !34
  %25 = load i32, ptr %10, align 4, !tbaa !28
  %26 = sext i32 %25 to i64
  %27 = getelementptr inbounds i32, ptr %24, i64 %26
  %28 = load i32, ptr %27, align 4, !tbaa !28
  %29 = and i32 %23, %28
  %30 = load ptr, ptr %8, align 8, !tbaa !34
  %31 = load i32, ptr %10, align 4, !tbaa !28
  %32 = sext i32 %31 to i64
  %33 = getelementptr inbounds i32, ptr %30, i64 %32
  %34 = load i32, ptr %33, align 4, !tbaa !28
  %35 = and i32 %29, %34
  %36 = icmp ne i32 %35, 0
  br i1 %36, label %37, label %38

37:                                               ; preds = %18
  store i32 0, ptr %5, align 4
  store i32 1, ptr %11, align 4
  br label %43

38:                                               ; preds = %18
  br label %39

39:                                               ; preds = %38
  %40 = load i32, ptr %10, align 4, !tbaa !28
  %41 = add nsw i32 %40, -1
  store i32 %41, ptr %10, align 4, !tbaa !28
  br label %15, !llvm.loop !50

42:                                               ; preds = %15
  store i32 1, ptr %5, align 4
  store i32 1, ptr %11, align 4
  br label %43

43:                                               ; preds = %42, %37
  call void @llvm.lifetime.end.p0(i64 4, ptr %10) #7
  %44 = load i32, ptr %5, align 4
  ret i32 %44
}

; Function Attrs: nounwind uwtable
define i32 @Bdc_DecomposeFindInitialVarSet(ptr noundef %0, ptr noundef %1, ptr noundef %2, ptr noundef %3) #0 {
  %5 = alloca i32, align 4
  %6 = alloca ptr, align 8
  %7 = alloca ptr, align 8
  %8 = alloca ptr, align 8
  %9 = alloca ptr, align 8
  %10 = alloca [16 x i8], align 16
  %11 = alloca i32, align 4
  %12 = alloca i32, align 4
  %13 = alloca i32, align 4
  %14 = alloca i32, align 4
  %15 = alloca i32, align 4
  store ptr %0, ptr %6, align 8, !tbaa !3
  store ptr %1, ptr %7, align 8, !tbaa !8
  store ptr %2, ptr %8, align 8, !tbaa !8
  store ptr %3, ptr %9, align 8, !tbaa !8
  call void @llvm.lifetime.start.p0(i64 16, ptr %10) #7
  call void @llvm.lifetime.start.p0(i64 4, ptr %11) #7
  call void @llvm.lifetime.start.p0(i64 4, ptr %12) #7
  call void @llvm.lifetime.start.p0(i64 4, ptr %13) #7
  call void @llvm.lifetime.start.p0(i64 4, ptr %14) #7
  store i32 0, ptr %12, align 4, !tbaa !28
  store i32 0, ptr %11, align 4, !tbaa !28
  br label %16

16:                                               ; preds = %38, %4
  %17 = load i32, ptr %11, align 4, !tbaa !28
  %18 = load ptr, ptr %6, align 8, !tbaa !3
  %19 = getelementptr inbounds nuw %struct.Bdc_Man_t_, ptr %18, i32 0, i32 1
  %20 = load i32, ptr %19, align 8, !tbaa !25
  %21 = icmp slt i32 %17, %20
  br i1 %21, label %22, label %41

22:                                               ; preds = %16
  %23 = load ptr, ptr %7, align 8, !tbaa !8
  %24 = getelementptr inbounds nuw %struct.Bdc_Isf_t_, ptr %23, i32 0, i32 0
  %25 = load i32, ptr %24, align 8, !tbaa !27
  %26 = load i32, ptr %11, align 4, !tbaa !28
  %27 = shl i32 1, %26
  %28 = and i32 %25, %27
  %29 = icmp ne i32 %28, 0
  br i1 %29, label %30, label %37

30:                                               ; preds = %22
  %31 = load i32, ptr %11, align 4, !tbaa !28
  %32 = trunc i32 %31 to i8
  %33 = load i32, ptr %12, align 4, !tbaa !28
  %34 = add nsw i32 %33, 1
  store i32 %34, ptr %12, align 4, !tbaa !28
  %35 = sext i32 %33 to i64
  %36 = getelementptr inbounds [16 x i8], ptr %10, i64 0, i64 %35
  store i8 %32, ptr %36, align 1, !tbaa !46
  br label %37

37:                                               ; preds = %30, %22
  br label %38

38:                                               ; preds = %37
  %39 = load i32, ptr %11, align 4, !tbaa !28
  %40 = add nsw i32 %39, 1
  store i32 %40, ptr %11, align 4, !tbaa !28
  br label %16, !llvm.loop !47

41:                                               ; preds = %16
  store i32 0, ptr %13, align 4, !tbaa !28
  br label %42

42:                                               ; preds = %118, %41
  %43 = load i32, ptr %13, align 4, !tbaa !28
  %44 = load i32, ptr %12, align 4, !tbaa !28
  %45 = icmp slt i32 %43, %44
  br i1 %45, label %46, label %121

46:                                               ; preds = %42
  %47 = load ptr, ptr %6, align 8, !tbaa !3
  %48 = getelementptr inbounds nuw %struct.Bdc_Man_t_, ptr %47, i32 0, i32 14
  %49 = load ptr, ptr %48, align 8, !tbaa !29
  %50 = load ptr, ptr %7, align 8, !tbaa !8
  %51 = getelementptr inbounds nuw %struct.Bdc_Isf_t_, ptr %50, i32 0, i32 3
  %52 = load ptr, ptr %51, align 8, !tbaa !26
  %53 = load ptr, ptr %6, align 8, !tbaa !3
  %54 = getelementptr inbounds nuw %struct.Bdc_Man_t_, ptr %53, i32 0, i32 1
  %55 = load i32, ptr %54, align 8, !tbaa !25
  %56 = load i32, ptr %13, align 4, !tbaa !28
  %57 = sext i32 %56 to i64
  %58 = getelementptr inbounds [16 x i8], ptr %10, i64 0, i64 %57
  %59 = load i8, ptr %58, align 1, !tbaa !46
  %60 = sext i8 %59 to i32
  call void @Kit_TruthExistNew(ptr noundef %49, ptr noundef %52, i32 noundef %55, i32 noundef %60)
  %61 = load i32, ptr %12, align 4, !tbaa !28
  %62 = sub nsw i32 %61, 1
  store i32 %62, ptr %14, align 4, !tbaa !28
  br label %63

63:                                               ; preds = %114, %46
  %64 = load i32, ptr %14, align 4, !tbaa !28
  %65 = load i32, ptr %13, align 4, !tbaa !28
  %66 = icmp sgt i32 %64, %65
  br i1 %66, label %67, label %117

67:                                               ; preds = %63
  %68 = load ptr, ptr %6, align 8, !tbaa !3
  %69 = getelementptr inbounds nuw %struct.Bdc_Man_t_, ptr %68, i32 0, i32 15
  %70 = load ptr, ptr %69, align 8, !tbaa !30
  %71 = load ptr, ptr %7, align 8, !tbaa !8
  %72 = getelementptr inbounds nuw %struct.Bdc_Isf_t_, ptr %71, i32 0, i32 3
  %73 = load ptr, ptr %72, align 8, !tbaa !26
  %74 = load ptr, ptr %6, align 8, !tbaa !3
  %75 = getelementptr inbounds nuw %struct.Bdc_Man_t_, ptr %74, i32 0, i32 1
  %76 = load i32, ptr %75, align 8, !tbaa !25
  %77 = load i32, ptr %14, align 4, !tbaa !28
  %78 = sext i32 %77 to i64
  %79 = getelementptr inbounds [16 x i8], ptr %10, i64 0, i64 %78
  %80 = load i8, ptr %79, align 1, !tbaa !46
  %81 = sext i8 %80 to i32
  call void @Kit_TruthExistNew(ptr noundef %70, ptr noundef %73, i32 noundef %76, i32 noundef %81)
  %82 = load ptr, ptr %7, align 8, !tbaa !8
  %83 = getelementptr inbounds nuw %struct.Bdc_Isf_t_, ptr %82, i32 0, i32 2
  %84 = load ptr, ptr %83, align 8, !tbaa !24
  %85 = load ptr, ptr %6, align 8, !tbaa !3
  %86 = getelementptr inbounds nuw %struct.Bdc_Man_t_, ptr %85, i32 0, i32 14
  %87 = load ptr, ptr %86, align 8, !tbaa !29
  %88 = load ptr, ptr %6, align 8, !tbaa !3
  %89 = getelementptr inbounds nuw %struct.Bdc_Man_t_, ptr %88, i32 0, i32 15
  %90 = load ptr, ptr %89, align 8, !tbaa !30
  %91 = load ptr, ptr %6, align 8, !tbaa !3
  %92 = getelementptr inbounds nuw %struct.Bdc_Man_t_, ptr %91, i32 0, i32 1
  %93 = load i32, ptr %92, align 8, !tbaa !25
  %94 = call i32 @Kit_TruthIsDisjoint3(ptr noundef %84, ptr noundef %87, ptr noundef %90, i32 noundef %93)
  %95 = icmp ne i32 %94, 0
  br i1 %95, label %96, label %113

96:                                               ; preds = %67
  %97 = load i32, ptr %13, align 4, !tbaa !28
  %98 = sext i32 %97 to i64
  %99 = getelementptr inbounds [16 x i8], ptr %10, i64 0, i64 %98
  %100 = load i8, ptr %99, align 1, !tbaa !46
  %101 = sext i8 %100 to i32
  %102 = shl i32 1, %101
  %103 = load ptr, ptr %8, align 8, !tbaa !8
  %104 = getelementptr inbounds nuw %struct.Bdc_Isf_t_, ptr %103, i32 0, i32 1
  store i32 %102, ptr %104, align 4, !tbaa !41
  %105 = load i32, ptr %14, align 4, !tbaa !28
  %106 = sext i32 %105 to i64
  %107 = getelementptr inbounds [16 x i8], ptr %10, i64 0, i64 %106
  %108 = load i8, ptr %107, align 1, !tbaa !46
  %109 = sext i8 %108 to i32
  %110 = shl i32 1, %109
  %111 = load ptr, ptr %9, align 8, !tbaa !8
  %112 = getelementptr inbounds nuw %struct.Bdc_Isf_t_, ptr %111, i32 0, i32 1
  store i32 %110, ptr %112, align 4, !tbaa !41
  store i32 1, ptr %5, align 4
  store i32 1, ptr %15, align 4
  br label %122

113:                                              ; preds = %67
  br label %114

114:                                              ; preds = %113
  %115 = load i32, ptr %14, align 4, !tbaa !28
  %116 = add nsw i32 %115, -1
  store i32 %116, ptr %14, align 4, !tbaa !28
  br label %63, !llvm.loop !48

117:                                              ; preds = %63
  br label %118

118:                                              ; preds = %117
  %119 = load i32, ptr %13, align 4, !tbaa !28
  %120 = add nsw i32 %119, 1
  store i32 %120, ptr %13, align 4, !tbaa !28
  br label %42, !llvm.loop !49

121:                                              ; preds = %42
  store i32 0, ptr %5, align 4
  store i32 1, ptr %15, align 4
  br label %122

122:                                              ; preds = %121, %96
  call void @llvm.lifetime.end.p0(i64 4, ptr %14) #7
  call void @llvm.lifetime.end.p0(i64 4, ptr %13) #7
  call void @llvm.lifetime.end.p0(i64 4, ptr %12) #7
  call void @llvm.lifetime.end.p0(i64 4, ptr %11) #7
  call void @llvm.lifetime.end.p0(i64 16, ptr %10) #7
  %123 = load i32, ptr %5, align 4
  ret i32 %123
}