; Function Attrs: nounwind uwtable
define range(i32 0, 2) i32 @Bdc_DecomposeFindInitialVarSet(ptr noundef readonly captures(none) %0, ptr noundef readonly captures(none) %1, ptr noundef writeonly captures(none) %2, ptr noundef writeonly captures(none) %3) local_unnamed_addr #0 {
  %5 = alloca [16 x i8], align 16
  call void @llvm.lifetime.start.p0(i64 16, ptr nonnull %5) #7
  %6 = getelementptr inbounds nuw i8, ptr %0, i64 8
  %7 = load i32, ptr %6, align 8, !tbaa !24
  %8 = icmp sgt i32 %7, 0
  br i1 %8, label %.lr.ph, label %.loopexit

.lr.ph:                                           ; preds = %4
  %9 = load i32, ptr %1, align 8, !tbaa !26
  br label %18

.preheader:                                       ; preds = %26
  %10 = icmp sgt i32 %.1, 0
  br i1 %10, label %.lr.ph45, label %.loopexit

.lr.ph45:                                         ; preds = %.preheader
  %11 = getelementptr inbounds nuw i8, ptr %0, i64 88
  %12 = getelementptr inbounds nuw i8, ptr %1, i64 16
  %.041 = add nsw i32 %.1, -1
  %13 = getelementptr inbounds nuw i8, ptr %0, i64 96
  %14 = getelementptr inbounds nuw i8, ptr %1, i64 8
  %15 = zext nneg i32 %.1 to i64
  %16 = add nsw i64 %15, -1
  %17 = zext nneg i32 %.041 to i64
  %wide.trip.count = zext nneg i32 %.1 to i64
  br label %28

18:                                               ; preds = %.lr.ph, %26
  %.03140 = phi i32 [ 0, %.lr.ph ], [ %.1, %26 ]
  %.03239 = phi i32 [ 0, %.lr.ph ], [ %27, %26 ]
  %19 = shl nuw i32 1, %.03239
  %20 = and i32 %9, %19
  %.not34 = icmp eq i32 %20, 0
  br i1 %.not34, label %26, label %21

21:                                               ; preds = %18
  %22 = trunc i32 %.03239 to i8
  %23 = add nsw i32 %.03140, 1
  %24 = sext i32 %.03140 to i64
  %25 = getelementptr inbounds [16 x i8], ptr %5, i64 0, i64 %24
  store i8 %22, ptr %25, align 1, !tbaa !43
  br label %26

26:                                               ; preds = %18, %21
  %.1 = phi i32 [ %23, %21 ], [ %.03140, %18 ]
  %27 = add nuw nsw i32 %.03239, 1
  %exitcond.not = icmp eq i32 %27, %7
  br i1 %exitcond.not, label %.preheader, label %18, !llvm.loop !44

28:                                               ; preds = %.lr.ph45, %._crit_edge
  %indvars.iv50 = phi i64 [ 0, %.lr.ph45 ], [ %indvars.iv.next51, %._crit_edge ]
  %29 = load ptr, ptr %11, align 8, !tbaa !27
  %30 = load ptr, ptr %12, align 8, !tbaa !25
  %31 = load i32, ptr %6, align 8, !tbaa !24
  %32 = getelementptr inbounds nuw [16 x i8], ptr %5, i64 0, i64 %indvars.iv50
  %33 = load i8, ptr %32, align 1, !tbaa !43
  %34 = sext i8 %33 to i32
  tail call void @Kit_TruthExistNew(ptr noundef %29, ptr noundef %30, i32 noundef %31, i32 noundef %34) #7
  %35 = icmp samesign ult i64 %indvars.iv50, %17
  br i1 %35, label %.lr.ph43.preheader, label %._crit_edge

.lr.ph43.preheader:                               ; preds = %28
  %.pre = load ptr, ptr %13, align 8, !tbaa !28
  %.pre54 = load i32, ptr %6, align 8, !tbaa !24
  br label %.lr.ph43

.lr.ph43:                                         ; preds = %.lr.ph43.preheader, %Kit_TruthIsDisjoint3.exit
  %36 = phi i32 [ %.pre54, %.lr.ph43.preheader ], [ %45, %Kit_TruthIsDisjoint3.exit ]
  %37 = phi ptr [ %.pre, %.lr.ph43.preheader ], [ %44, %Kit_TruthIsDisjoint3.exit ]
  %indvars.iv = phi i64 [ %16, %.lr.ph43.preheader ], [ %indvars.iv.next, %Kit_TruthIsDisjoint3.exit ]
  %38 = load ptr, ptr %12, align 8, !tbaa !25
  %39 = getelementptr inbounds [16 x i8], ptr %5, i64 0, i64 %indvars.iv
  %40 = load i8, ptr %39, align 1, !tbaa !43
  %41 = sext i8 %40 to i32
  tail call void @Kit_TruthExistNew(ptr noundef %37, ptr noundef %38, i32 noundef %36, i32 noundef %41) #7
  %42 = load ptr, ptr %14, align 8, !tbaa !23
  %43 = load ptr, ptr %11, align 8, !tbaa !27
  %44 = load ptr, ptr %13, align 8, !tbaa !28
  %45 = load i32, ptr %6, align 8, !tbaa !24
  %46 = icmp slt i32 %45, 6
  %47 = add nsw i32 %45, -5
  %48 = shl nuw i32 1, %47
  %spec.select.i = select i1 %46, i32 1, i32 %48
  %49 = zext i32 %spec.select.i to i64
  br label %select.unfold.i

select.unfold.i:                                  ; preds = %52, %.lr.ph43
  %indvars.iv.i = phi i64 [ %49, %.lr.ph43 ], [ %53, %52 ]
  %50 = trunc nuw i64 %indvars.iv.i to i32
  %51 = icmp sgt i32 %50, 0
  br i1 %51, label %52, label %63

52:                                               ; preds = %select.unfold.i
  %53 = add nsw i64 %indvars.iv.i, -1
  %54 = getelementptr inbounds nuw i32, ptr %42, i64 %53
  %55 = load i32, ptr %54, align 4, !tbaa !29
  %56 = getelementptr inbounds nuw i32, ptr %43, i64 %53
  %57 = load i32, ptr %56, align 4, !tbaa !29
  %58 = and i32 %57, %55
  %59 = getelementptr inbounds nuw i32, ptr %44, i64 %53
  %60 = load i32, ptr %59, align 4, !tbaa !29
  %61 = and i32 %58, %60
  %.not.i = icmp eq i32 %61, 0
  br i1 %.not.i, label %select.unfold.i, label %Kit_TruthIsDisjoint3.exit, !llvm.loop !45

Kit_TruthIsDisjoint3.exit:                        ; preds = %52
  %indvars.iv.next = add nsw i64 %indvars.iv, -1
  %62 = icmp sgt i64 %indvars.iv.next, %indvars.iv50
  br i1 %62, label %.lr.ph43, label %._crit_edge, !llvm.loop !46

63:                                               ; preds = %select.unfold.i
  %64 = zext nneg i8 %33 to i32
  %65 = shl nuw i32 1, %64
  %66 = getelementptr inbounds nuw i8, ptr %2, i64 4
  store i32 %65, ptr %66, align 4, !tbaa !40
  %67 = zext nneg i8 %40 to i32
  %68 = shl nuw i32 1, %67
  %69 = getelementptr inbounds nuw i8, ptr %3, i64 4
  store i32 %68, ptr %69, align 4, !tbaa !40
  br label %.loopexit

._crit_edge:                                      ; preds = %Kit_TruthIsDisjoint3.exit, %28
  %indvars.iv.next51 = add nuw nsw i64 %indvars.iv50, 1
  %exitcond53.not = icmp eq i64 %indvars.iv.next51, %wide.trip.count
  br i1 %exitcond53.not, label %.loopexit, label %28, !llvm.loop !47

.loopexit:                                        ; preds = %._crit_edge, %4, %.preheader, %63
  %.033 = phi i32 [ 1, %63 ], [ 0, %.preheader ], [ 0, %4 ], [ 0, %._crit_edge ]
  call void @llvm.lifetime.end.p0(i64 16, ptr nonnull %5) #7
  ret i32 %.033
}